target datalayout = "e-m:e-p270:32:32-p271:32:32-p272:64:64-i64:64-i128:128-f80:128-n8:16:32:64-S128"
target triple = "x86_64-unknown-linux-gnu"

%"class.facebook::hermes::tracing::TraceInterpreter" = type { ptr, %"struct.facebook::hermes::tracing::TraceInterpreter::ExecuteOptions", ptr, %"class.std::map", ptr, ptr, ptr, ptr, %"class.std::unordered_map", %"class.std::unordered_map.19", %"class.std::__cxx11::basic_string", i8, i64 }
%"struct.facebook::hermes::tracing::TraceInterpreter::ExecuteOptions" = type <{ %"class.hermes::vm::GCConfig::Builder", i8, i8, [2 x i8], i32, i32, i8, i8, [2 x i8], %"class.std::__cxx11::basic_string", i32, [4 x i8], %"class.std::__cxx11::basic_string", %"class.llvh::Optional", [2 x i8], %"class.llvh::Optional.9", [4 x i8] }>
%"class.hermes::vm::GCConfig::Builder" = type { %"class.hermes::vm::GCConfig", i8, i8, i8, i8, i8, i8, i8, i8, i8, i8, i8, i8, i8, i8, i8, i8 }
%"class.hermes::vm::GCConfig" = type { i32, i32, i32, double, i32, %"class.hermes::vm::GCSanitizeConfig", i8, i32, %"class.std::__cxx11::basic_string", %"class.hermes::vm::GCTripwireConfig", i8, i8, i8, i8, %"class.std::function.3", %"class.std::function.6" }
%"class.hermes::vm::GCSanitizeConfig" = type { double, i64 }
%"class.hermes::vm::GCTripwireConfig" = type { i32, %"class.std::function" }
%"class.std::function" = type { %"class.std::_Function_base", ptr }
%"class.std::_Function_base" = type { %"union.std::_Any_data", ptr }
%"union.std::_Any_data" = type { %"union.std::_Nocopy_types" }
%"union.std::_Nocopy_types" = type { { i64, i64 } }
%"class.std::function.3" = type { %"class.std::_Function_base", ptr }
%"class.std::function.6" = type { %"class.std::_Function_base", ptr }
%"class.llvh::Optional" = type { %"struct.llvh::optional_detail::OptionalStorage" }
%"struct.llvh::optional_detail::OptionalStorage" = type { %"struct.llvh::AlignedCharArrayUnion", i8 }
%"struct.llvh::AlignedCharArrayUnion" = type { %"struct.llvh::AlignedCharArray" }
%"struct.llvh::AlignedCharArray" = type { [1 x i8] }
%"class.llvh::Optional.9" = type { %"struct.llvh::optional_detail::OptionalStorage.10" }
%"struct.llvh::optional_detail::OptionalStorage.10" = type { %"struct.llvh::AlignedCharArrayUnion.11", i8, [3 x i8] }
%"struct.llvh::AlignedCharArrayUnion.11" = type { %"struct.llvh::AlignedCharArray.12" }
%"struct.llvh::AlignedCharArray.12" = type { [4 x i8] }
%"class.std::map" = type { %"class.std::_Rb_tree" }
%"class.std::_Rb_tree" = type { %"struct.std::_Rb_tree<std::array<unsigned char, 20>, std::pair<const std::array<unsigned char, 20>, std::shared_ptr<const facebook::jsi::Buffer>>, std::_Select1st<std::pair<const std::array<unsigned char, 20>, std::shared_ptr<const facebook::jsi::Buffer>>>, std::less<std::array<unsigned char, 20>>>::_Rb_tree_impl" }
%"struct.std::_Rb_tree<std::array<unsigned char, 20>, std::pair<const std::array<unsigned char, 20>, std::shared_ptr<const facebook::jsi::Buffer>>, std::_Select1st<std::pair<const std::array<unsigned char, 20>, std::shared_ptr<const facebook::jsi::Buffer>>>, std::less<std::array<unsigned char, 20>>>::_Rb_tree_impl" = type { %"struct.std::_Rb_tree_key_compare", %"struct.std::_Rb_tree_header" }
%"struct.std::_Rb_tree_key_compare" = type { %"struct.std::less" }
%"struct.std::less" = type { i8 }
%"struct.std::_Rb_tree_header" = type { %"struct.std::_Rb_tree_node_base", i64 }
%"struct.std::_Rb_tree_node_base" = type { i32, ptr, ptr, ptr }
%"class.std::unordered_map" = type { %"class.std::_Hashtable" }
%"class.std::_Hashtable" = type { ptr, i64, %"struct.std::__detail::_Hash_node_base", i64, %"struct.std::__detail::_Prime_rehash_policy", ptr }
%"struct.std::__detail::_Hash_node_base" = type { ptr }
%"struct.std::__detail::_Prime_rehash_policy" = type { float, i64 }
%"class.std::unordered_map.19" = type { %"class.std::_Hashtable.20" }
%"class.std::_Hashtable.20" = type { ptr, i64, %"struct.std::__detail::_Hash_node_base", i64, %"struct.std::__detail::_Prime_rehash_policy", ptr }
%"class.std::__cxx11::basic_string" = type { %"struct.std::__cxx11::basic_string<char>::_Alloc_hider", i64, %union.anon }
%"struct.std::__cxx11::basic_string<char>::_Alloc_hider" = type { ptr }
%union.anon = type { i64, [8 x i8] }
%"class.hermes::OptValue" = type <{ i64, i8, [7 x i8] }>

@_ZTIN8facebook3jsi7RuntimeE = external constant ptr
@_ZTIN8facebook6hermes7tracing14TracingRuntimeE = external constant ptr
@.str.13 = private unnamed_addr constant [52 x i8] c"An exception occurred while running the benchmark:\0A\00", align 1
@.str.14 = private unnamed_addr constant [18 x i8] c"At record number \00", align 1
@.str.15 = private unnamed_addr constant [3 x i8] c":\0A\00", align 1
@.str.16 = private unnamed_addr constant [2 x i8] c"\0A\00", align 1
@.str.17 = private unnamed_addr constant [23 x i8] c"Writing out the trace\0A\00", align 1
@.str.18 = private unnamed_addr constant [44 x i8] c"Pass --trace to get a trace for comparison\0A\00", align 1
@.str.19 = private unnamed_addr constant [14 x i8] c"Crashing now\0A\00", align 1

; Function Attrs: mustprogress nounwind uwtable
define linkonce_odr hidden noundef nonnull align 8 dereferenceable(8) ptr @_ZNK6hermes8OptValueImE8getValueEv(ptr noundef nonnull align 8 dereferenceable(9) %this) #5 comdat align 2 {
entry:
  %this.addr = alloca ptr, align 8
  store ptr %this, ptr %this.addr, align 8
  %this1 = load ptr, ptr %this.addr, align 8
  %value_ = getelementptr inbounds %"class.hermes::OptValue", ptr %this1, i32 0, i32 0
  ret ptr %value_
}

; Function Attrs: mustprogress nounwind uwtable
define linkonce_odr hidden noundef zeroext i1 @_ZNK6hermes8OptValueImEcvbEv(ptr noundef nonnull align 8 dereferenceable(9) %this) #5 comdat align 2 {
entry:
  %this.addr = alloca ptr, align 8
  store ptr %this, ptr %this.addr, align 8
  %this1 = load ptr, ptr %this.addr, align 8
  %hasValue_ = getelementptr inbounds %"class.hermes::OptValue", ptr %this1, i32 0, i32 1
  %0 = load i8, ptr %hasValue_, align 8
  %tobool = trunc i8 %0 to i1
  ret i1 %tobool
}

; Function Attrs: mustprogress noreturn uwtable
define hidden void @_ZN8facebook6hermes7tracing16TraceInterpreter16crashOnExceptionERKSt9exceptionN6hermes8OptValueImEE(ptr noundef nonnull align 8 dereferenceable(576) %this, ptr noundef nonnull align 8 dereferenceable(8) %e, i64 %globalRecordNum.coerce0, i8 %globalRecordNum.coerce1) #10 align 2 {
entry:
  %globalRecordNum = alloca %"class.hermes::OptValue", align 8
  %this.addr = alloca ptr, align 8
  %e.addr = alloca ptr, align 8
  %0 = getelementptr inbounds { i64, i8 }, ptr %globalRecordNum, i32 0, i32 0
  store i64 %globalRecordNum.coerce0, ptr %0, align 8
  %1 = getelementptr inbounds { i64, i8 }, ptr %globalRecordNum, i32 0, i32 1
  store i8 %globalRecordNum.coerce1, ptr %1, align 8
  store ptr %this, ptr %this.addr, align 8
  store ptr %e, ptr %e.addr, align 8
  %this1 = load ptr, ptr %this.addr, align 8
  %call = call noundef nonnull align 8 dereferenceable(36) ptr @_ZN4llvh4errsEv()
  %call2 = call noundef nonnull align 8 dereferenceable(36) ptr @_ZN4llvh11raw_ostreamlsEPKc(ptr noundef nonnull align 8 dereferenceable(36) %call, ptr noundef @.str.13)
  %call3 = call noundef zeroext i1 @_ZNK6hermes8OptValueImEcvbEv(ptr noundef nonnull align 8 dereferenceable(9) %globalRecordNum)
  br i1 %call3, label %if.then, label %if.end

if.then:                                          ; preds = %entry
  %call4 = call noundef nonnull align 8 dereferenceable(36) ptr @_ZN4llvh4errsEv()
  %call5 = call noundef nonnull align 8 dereferenceable(36) ptr @_ZN4llvh11raw_ostreamlsEPKc(ptr noundef nonnull align 8 dereferenceable(36) %call4, ptr noundef @.str.14)
  %call6 = call noundef nonnull align 8 dereferenceable(8) ptr @_ZNK6hermes8OptValueImE8getValueEv(ptr noundef nonnull align 8 dereferenceable(9) %globalRecordNum)
  %2 = load i64, ptr %call6, align 8
  %call7 = call noundef nonnull align 8 dereferenceable(36) ptr @_ZN4llvh11raw_ostreamlsEm(ptr noundef nonnull align 8 dereferenceable(36) %call5, i64 noundef %2)
  %call8 = call noundef nonnull align 8 dereferenceable(36) ptr @_ZN4llvh11raw_ostreamlsEPKc(ptr noundef nonnull align 8 dereferenceable(36) %call7, ptr noundef @.str.15)
  br label %if.end

if.end:                                           ; preds = %if.then, %entry
  %call9 = call noundef nonnull align 8 dereferenceable(36) ptr @_ZN4llvh4errsEv()
  %3 = load ptr, ptr %e.addr, align 8
  %vtable = load ptr, ptr %3, align 8
  %vfn = getelementptr inbounds ptr, ptr %vtable, i64 2
  %4 = load ptr, ptr %vfn, align 8
  %call10 = call noundef ptr %4(ptr noundef nonnull align 8 dereferenceable(8) %3) #3
  %call11 = call noundef nonnull align 8 dereferenceable(36) ptr @_ZN4llvh11raw_ostreamlsEPKc(ptr noundef nonnull align 8 dereferenceable(36) %call9, ptr noundef %call10)
  %call12 = call noundef nonnull align 8 dereferenceable(36) ptr @_ZN4llvh11raw_ostreamlsEPKc(ptr noundef nonnull align 8 dereferenceable(36) %call11, ptr noundef @.str.16)
  %traceStream_ = getelementptr inbounds %"class.facebook::hermes::tracing::TraceInterpreter", ptr %this1, i32 0, i32 2
  %5 = load ptr, ptr %traceStream_, align 8
  %tobool = icmp ne ptr %5, null
  br i1 %tobool, label %if.then13, label %if.else

if.then13:                                        ; preds = %if.end
  %call14 = call noundef nonnull align 8 dereferenceable(36) ptr @_ZN4llvh4errsEv()
  %call15 = call noundef nonnull align 8 dereferenceable(36) ptr @_ZN4llvh11raw_ostreamlsEPKc(ptr noundef nonnull align 8 dereferenceable(36) %call14, ptr noundef @.str.17)
  %rt_ = getelementptr inbounds %"class.facebook::hermes::tracing::TraceInterpreter", ptr %this1, i32 0, i32 0
  %6 = load ptr, ptr %rt_, align 8
  %7 = call ptr @__dynamic_cast(ptr %6, ptr @_ZTIN8facebook3jsi7RuntimeE, ptr @_ZTIN8facebook6hermes7tracing14TracingRuntimeE, i64 0) #3
  %8 = icmp eq ptr %7, null
  br i1 %8, label %dynamic_cast.bad_cast, label %dynamic_cast.end

dynamic_cast.bad_cast:                            ; preds = %if.then13
  call void @__cxa_bad_cast() #20
  unreachable

dynamic_cast.end:                                 ; preds = %if.then13
  %vtable16 = load ptr, ptr %7, align 8
  %vfn17 = getelementptr inbounds ptr, ptr %vtable16, i64 88
  %9 = load ptr, ptr %vfn17, align 8
  call void %9(ptr noundef nonnull align 8 dereferenceable(172) %7)
  %call18 = call noundef nonnull align 8 dereferenceable(36) ptr @_ZN4llvh4errsEv()
  %call19 = call noundef nonnull align 8 dereferenceable(36) ptr @_ZN4llvh11raw_ostreamlsEPKc(ptr noundef nonnull align 8 dereferenceable(36) %call18, ptr noundef @.str.16)
  br label %if.end22

if.else:                                          ; preds = %if.end
  %call20 = call noundef nonnull align 8 dereferenceable(36) ptr @_ZN4llvh4errsEv()
  %call21 = call noundef nonnull align 8 dereferenceable(36) ptr @_ZN4llvh11raw_ostreamlsEPKc(ptr noundef nonnull align 8 dereferenceable(36) %call20, ptr noundef @.str.18)
  br label %if.end22

if.end22:                                         ; preds = %if.else, %dynamic_cast.end
  %call23 = call noundef nonnull align 8 dereferenceable(36) ptr @_ZN4llvh4errsEv()
  %call24 = call noundef nonnull align 8 dereferenceable(36) ptr @_ZN4llvh11raw_ostreamlsEPKc(ptr noundef nonnull align 8 dereferenceable(36) %call23, ptr noundef @.str.19)
  call void @abort() #21
  unreachable
}