; Function Attrs: mustprogress noreturn uwtable
define hidden void @_ZN8facebook6hermes7tracing16TraceInterpreter16crashOnExceptionERKSt9exceptionN6hermes8OptValueImEE(ptr nocapture noundef nonnull readonly align 8 dereferenceable(576) %this, ptr noundef nonnull align 8 dereferenceable(8) %e, i64 %globalRecordNum.coerce0, i8 %globalRecordNum.coerce1) local_unnamed_addr #9 align 2 {
entry:
  %call = tail call noundef nonnull align 8 dereferenceable(36) ptr @_ZN4llvh4errsEv()
  %OutBufEnd.i5.i = getelementptr inbounds i8, ptr %call, i64 16
  %0 = load ptr, ptr %OutBufEnd.i5.i, align 8
  %OutBufCur.i6.i = getelementptr inbounds i8, ptr %call, i64 24
  %1 = load ptr, ptr %OutBufCur.i6.i, align 8
  %sub.ptr.lhs.cast.i7.i = ptrtoint ptr %0 to i64
  %sub.ptr.rhs.cast.i8.i = ptrtoint ptr %1 to i64
  %sub.ptr.sub.i9.i = sub i64 %sub.ptr.lhs.cast.i7.i, %sub.ptr.rhs.cast.i8.i
  %cmp.i.i = icmp ult i64 %sub.ptr.sub.i9.i, 51
  br i1 %cmp.i.i, label %if.then.i.i, label %if.then4.i.i

if.then.i.i:                                      ; preds = %entry
  %call3.i.i = tail call noundef nonnull align 8 dereferenceable(36) ptr @_ZN4llvh11raw_ostream5writeEPKcm(ptr noundef nonnull align 8 dereferenceable(36) %call, ptr noundef nonnull @.str.13, i64 noundef 51)
  br label %_ZN4llvh11raw_ostreamlsEPKc.exit

if.then4.i.i:                                     ; preds = %entry
  tail call void @llvm.memcpy.p0.p0.i64(ptr noundef nonnull align 1 dereferenceable(51) %1, ptr noundef nonnull align 1 dereferenceable(51) @.str.13, i64 51, i1 false)
  %2 = load ptr, ptr %OutBufCur.i6.i, align 8
  %add.ptr.i.i = getelementptr inbounds i8, ptr %2, i64 51
  store ptr %add.ptr.i.i, ptr %OutBufCur.i6.i, align 8
  br label %_ZN4llvh11raw_ostreamlsEPKc.exit

_ZN4llvh11raw_ostreamlsEPKc.exit:                 ; preds = %if.then.i.i, %if.then4.i.i
  %3 = and i8 %globalRecordNum.coerce1, 1
  %tobool.i.not = icmp eq i8 %3, 0
  br i1 %tobool.i.not, label %if.end, label %if.then

if.then:                                          ; preds = %_ZN4llvh11raw_ostreamlsEPKc.exit
  %call4 = tail call noundef nonnull align 8 dereferenceable(36) ptr @_ZN4llvh4errsEv()
  %OutBufEnd.i5.i2 = getelementptr inbounds i8, ptr %call4, i64 16
  %4 = load ptr, ptr %OutBufEnd.i5.i2, align 8
  %OutBufCur.i6.i3 = getelementptr inbounds i8, ptr %call4, i64 24
  %5 = load ptr, ptr %OutBufCur.i6.i3, align 8
  %sub.ptr.lhs.cast.i7.i4 = ptrtoint ptr %4 to i64
  %sub.ptr.rhs.cast.i8.i5 = ptrtoint ptr %5 to i64
  %sub.ptr.sub.i9.i6 = sub i64 %sub.ptr.lhs.cast.i7.i4, %sub.ptr.rhs.cast.i8.i5
  %cmp.i.i7 = icmp ult i64 %sub.ptr.sub.i9.i6, 17
  br i1 %cmp.i.i7, label %if.then.i.i13, label %if.then4.i.i10

if.then.i.i13:                                    ; preds = %if.then
  %call3.i.i14 = tail call noundef nonnull align 8 dereferenceable(36) ptr @_ZN4llvh11raw_ostream5writeEPKcm(ptr noundef nonnull align 8 dereferenceable(36) %call4, ptr noundef nonnull @.str.14, i64 noundef 17)
  br label %_ZN4llvh11raw_ostreamlsEPKc.exit15

if.then4.i.i10:                                   ; preds = %if.then
  tail call void @llvm.memcpy.p0.p0.i64(ptr noundef nonnull align 1 dereferenceable(17) %5, ptr noundef nonnull align 1 dereferenceable(17) @.str.14, i64 17, i1 false)
  %6 = load ptr, ptr %OutBufCur.i6.i3, align 8
  %add.ptr.i.i11 = getelementptr inbounds i8, ptr %6, i64 17
  store ptr %add.ptr.i.i11, ptr %OutBufCur.i6.i3, align 8
  br label %_ZN4llvh11raw_ostreamlsEPKc.exit15

_ZN4llvh11raw_ostreamlsEPKc.exit15:               ; preds = %if.then.i.i13, %if.then4.i.i10
  %phi.call.i12 = phi ptr [ %call3.i.i14, %if.then.i.i13 ], [ %call4, %if.then4.i.i10 ]
  %call7 = tail call noundef nonnull align 8 dereferenceable(36) ptr @_ZN4llvh11raw_ostreamlsEm(ptr noundef nonnull align 8 dereferenceable(36) %phi.call.i12, i64 noundef %globalRecordNum.coerce0)
  %OutBufEnd.i5.i17 = getelementptr inbounds i8, ptr %call7, i64 16
  %7 = load ptr, ptr %OutBufEnd.i5.i17, align 8
  %OutBufCur.i6.i18 = getelementptr inbounds i8, ptr %call7, i64 24
  %8 = load ptr, ptr %OutBufCur.i6.i18, align 8
  %sub.ptr.lhs.cast.i7.i19 = ptrtoint ptr %7 to i64
  %sub.ptr.rhs.cast.i8.i20 = ptrtoint ptr %8 to i64
  %sub.ptr.sub.i9.i21 = sub i64 %sub.ptr.lhs.cast.i7.i19, %sub.ptr.rhs.cast.i8.i20
  %cmp.i.i22 = icmp ult i64 %sub.ptr.sub.i9.i21, 2
  br i1 %cmp.i.i22, label %if.then.i.i28, label %if.then4.i.i25

if.then.i.i28:                                    ; preds = %_ZN4llvh11raw_ostreamlsEPKc.exit15
  %call3.i.i29 = tail call noundef nonnull align 8 dereferenceable(36) ptr @_ZN4llvh11raw_ostream5writeEPKcm(ptr noundef nonnull align 8 dereferenceable(36) %call7, ptr noundef nonnull @.str.15, i64 noundef 2)
  br label %if.end

if.then4.i.i25:                                   ; preds = %_ZN4llvh11raw_ostreamlsEPKc.exit15
  store i16 2618, ptr %8, align 1
  %9 = load ptr, ptr %OutBufCur.i6.i18, align 8
  %add.ptr.i.i26 = getelementptr inbounds i8, ptr %9, i64 2
  store ptr %add.ptr.i.i26, ptr %OutBufCur.i6.i18, align 8
  br label %if.end

if.end:                                           ; preds = %if.then4.i.i25, %if.then.i.i28, %_ZN4llvh11raw_ostreamlsEPKc.exit
  %call9 = tail call noundef nonnull align 8 dereferenceable(36) ptr @_ZN4llvh4errsEv()
  %vtable = load ptr, ptr %e, align 8
  %vfn = getelementptr inbounds i8, ptr %vtable, i64 16
  %10 = load ptr, ptr %vfn, align 8
  %call10 = tail call noundef ptr %10(ptr noundef nonnull align 8 dereferenceable(8) %e) #29
  %tobool.i.not.i = icmp eq ptr %call10, null
  br i1 %tobool.i.not.i, label %_ZN4llvh11raw_ostreamlsEPKc.exit45, label %cond.true.i.split.i

cond.true.i.split.i:                              ; preds = %if.end
  %call.i.i31 = tail call i64 @strlen(ptr noundef nonnull dereferenceable(1) %call10) #35
  %OutBufEnd.i5.i32 = getelementptr inbounds i8, ptr %call9, i64 16
  %11 = load ptr, ptr %OutBufEnd.i5.i32, align 8
  %OutBufCur.i6.i33 = getelementptr inbounds i8, ptr %call9, i64 24
  %12 = load ptr, ptr %OutBufCur.i6.i33, align 8
  %sub.ptr.lhs.cast.i7.i34 = ptrtoint ptr %11 to i64
  %sub.ptr.rhs.cast.i8.i35 = ptrtoint ptr %12 to i64
  %sub.ptr.sub.i9.i36 = sub i64 %sub.ptr.lhs.cast.i7.i34, %sub.ptr.rhs.cast.i8.i35
  %cmp.i.i37 = icmp ult i64 %sub.ptr.sub.i9.i36, %call.i.i31
  br i1 %cmp.i.i37, label %if.then.i.i43, label %if.end.i.i38

if.then.i.i43:                                    ; preds = %cond.true.i.split.i
  %call3.i.i44 = tail call noundef nonnull align 8 dereferenceable(36) ptr @_ZN4llvh11raw_ostream5writeEPKcm(ptr noundef nonnull align 8 dereferenceable(36) %call9, ptr noundef nonnull %call10, i64 noundef %call.i.i31)
  br label %_ZN4llvh11raw_ostreamlsEPKc.exit45

if.end.i.i38:                                     ; preds = %cond.true.i.split.i
  %tobool.not.i.i39 = icmp eq i64 %call.i.i31, 0
  br i1 %tobool.not.i.i39, label %_ZN4llvh11raw_ostreamlsEPKc.exit45, label %if.then4.i.i40

if.then4.i.i40:                                   ; preds = %if.end.i.i38
  tail call void @llvm.memcpy.p0.p0.i64(ptr align 1 %12, ptr nonnull align 1 %call10, i64 %call.i.i31, i1 false)
  %13 = load ptr, ptr %OutBufCur.i6.i33, align 8
  %add.ptr.i.i41 = getelementptr inbounds i8, ptr %13, i64 %call.i.i31
  store ptr %add.ptr.i.i41, ptr %OutBufCur.i6.i33, align 8
  br label %_ZN4llvh11raw_ostreamlsEPKc.exit45

_ZN4llvh11raw_ostreamlsEPKc.exit45:               ; preds = %if.end, %if.then.i.i43, %if.end.i.i38, %if.then4.i.i40
  %phi.call.i42 = phi ptr [ %call3.i.i44, %if.then.i.i43 ], [ %call9, %if.then4.i.i40 ], [ %call9, %if.end.i.i38 ], [ %call9, %if.end ]
  %OutBufEnd.i5.i48 = getelementptr inbounds i8, ptr %phi.call.i42, i64 16
  %14 = load ptr, ptr %OutBufEnd.i5.i48, align 8
  %OutBufCur.i6.i49 = getelementptr inbounds i8, ptr %phi.call.i42, i64 24
  %15 = load ptr, ptr %OutBufCur.i6.i49, align 8
  %cmp.i.i53 = icmp eq ptr %14, %15
  br i1 %cmp.i.i53, label %if.then.i.i59, label %if.then4.i.i56

if.then.i.i59:                                    ; preds = %_ZN4llvh11raw_ostreamlsEPKc.exit45
  %call3.i.i60 = tail call noundef nonnull align 8 dereferenceable(36) ptr @_ZN4llvh11raw_ostream5writeEPKcm(ptr noundef nonnull align 8 dereferenceable(36) %phi.call.i42, ptr noundef nonnull @.str.16, i64 noundef 1)
  br label %_ZN4llvh11raw_ostreamlsEPKc.exit61

if.then4.i.i56:                                   ; preds = %_ZN4llvh11raw_ostreamlsEPKc.exit45
  store i8 10, ptr %15, align 1
  %16 = load ptr, ptr %OutBufCur.i6.i49, align 8
  %add.ptr.i.i57 = getelementptr inbounds i8, ptr %16, i64 1
  store ptr %add.ptr.i.i57, ptr %OutBufCur.i6.i49, align 8
  br label %_ZN4llvh11raw_ostreamlsEPKc.exit61

_ZN4llvh11raw_ostreamlsEPKc.exit61:               ; preds = %if.then.i.i59, %if.then4.i.i56
  %traceStream_ = getelementptr inbounds i8, ptr %this, i64 328
  %17 = load ptr, ptr %traceStream_, align 8
  %tobool.not = icmp eq ptr %17, null
  %call20 = tail call noundef nonnull align 8 dereferenceable(36) ptr @_ZN4llvh4errsEv()
  %OutBufEnd.i5.i96 = getelementptr inbounds i8, ptr %call20, i64 16
  %18 = load ptr, ptr %OutBufEnd.i5.i96, align 8
  %OutBufCur.i6.i97 = getelementptr inbounds i8, ptr %call20, i64 24
  %19 = load ptr, ptr %OutBufCur.i6.i97, align 8
  %sub.ptr.lhs.cast.i7.i98 = ptrtoint ptr %18 to i64
  %sub.ptr.rhs.cast.i8.i99 = ptrtoint ptr %19 to i64
  %sub.ptr.sub.i9.i100 = sub i64 %sub.ptr.lhs.cast.i7.i98, %sub.ptr.rhs.cast.i8.i99
  br i1 %tobool.not, label %if.else, label %if.then13

if.then13:                                        ; preds = %_ZN4llvh11raw_ostreamlsEPKc.exit61
  %cmp.i.i69 = icmp ult i64 %sub.ptr.sub.i9.i100, 22
  br i1 %cmp.i.i69, label %if.then.i.i75, label %if.then4.i.i72

if.then.i.i75:                                    ; preds = %if.then13
  %call3.i.i76 = tail call noundef nonnull align 8 dereferenceable(36) ptr @_ZN4llvh11raw_ostream5writeEPKcm(ptr noundef nonnull align 8 dereferenceable(36) %call20, ptr noundef nonnull @.str.17, i64 noundef 22)
  br label %_ZN4llvh11raw_ostreamlsEPKc.exit77

if.then4.i.i72:                                   ; preds = %if.then13
  tail call void @llvm.memcpy.p0.p0.i64(ptr noundef nonnull align 1 dereferenceable(22) %19, ptr noundef nonnull align 1 dereferenceable(22) @.str.17, i64 22, i1 false)
  %20 = load ptr, ptr %OutBufCur.i6.i97, align 8
  %add.ptr.i.i73 = getelementptr inbounds i8, ptr %20, i64 22
  store ptr %add.ptr.i.i73, ptr %OutBufCur.i6.i97, align 8
  br label %_ZN4llvh11raw_ostreamlsEPKc.exit77

_ZN4llvh11raw_ostreamlsEPKc.exit77:               ; preds = %if.then.i.i75, %if.then4.i.i72
  %21 = load ptr, ptr %this, align 8
  %22 = tail call ptr @__dynamic_cast(ptr %21, ptr nonnull @_ZTIN8facebook3jsi7RuntimeE, ptr nonnull @_ZTIN8facebook6hermes7tracing14TracingRuntimeE, i64 0) #29
  %23 = icmp eq ptr %22, null
  br i1 %23, label %dynamic_cast.bad_cast, label %dynamic_cast.end

dynamic_cast.bad_cast:                            ; preds = %_ZN4llvh11raw_ostreamlsEPKc.exit77
  tail call void @__cxa_bad_cast() #33
  unreachable

dynamic_cast.end:                                 ; preds = %_ZN4llvh11raw_ostreamlsEPKc.exit77
  %vtable16 = load ptr, ptr %22, align 8
  %vfn17 = getelementptr inbounds i8, ptr %vtable16, i64 704
  %24 = load ptr, ptr %vfn17, align 8
  tail call void %24(ptr noundef nonnull align 8 dereferenceable(172) %22)
  %call18 = tail call noundef nonnull align 8 dereferenceable(36) ptr @_ZN4llvh4errsEv()
  %OutBufEnd.i5.i80 = getelementptr inbounds i8, ptr %call18, i64 16
  %25 = load ptr, ptr %OutBufEnd.i5.i80, align 8
  %OutBufCur.i6.i81 = getelementptr inbounds i8, ptr %call18, i64 24
  %26 = load ptr, ptr %OutBufCur.i6.i81, align 8
  %cmp.i.i85 = icmp eq ptr %25, %26
  br i1 %cmp.i.i85, label %if.then.i.i91, label %if.then4.i.i88

if.then.i.i91:                                    ; preds = %dynamic_cast.end
  %call3.i.i92 = tail call noundef nonnull align 8 dereferenceable(36) ptr @_ZN4llvh11raw_ostream5writeEPKcm(ptr noundef nonnull align 8 dereferenceable(36) %call18, ptr noundef nonnull @.str.16, i64 noundef 1)
  br label %if.end22

if.then4.i.i88:                                   ; preds = %dynamic_cast.end
  store i8 10, ptr %26, align 1
  %27 = load ptr, ptr %OutBufCur.i6.i81, align 8
  %add.ptr.i.i89 = getelementptr inbounds i8, ptr %27, i64 1
  store ptr %add.ptr.i.i89, ptr %OutBufCur.i6.i81, align 8
  br label %if.end22

if.else:                                          ; preds = %_ZN4llvh11raw_ostreamlsEPKc.exit61
  %cmp.i.i101 = icmp ult i64 %sub.ptr.sub.i9.i100, 43
  br i1 %cmp.i.i101, label %if.then.i.i107, label %if.then4.i.i104

if.then.i.i107:                                   ; preds = %if.else
  %call3.i.i108 = tail call noundef nonnull align 8 dereferenceable(36) ptr @_ZN4llvh11raw_ostream5writeEPKcm(ptr noundef nonnull align 8 dereferenceable(36) %call20, ptr noundef nonnull @.str.18, i64 noundef 43)
  br label %if.end22

if.then4.i.i104:                                  ; preds = %if.else
  tail call void @llvm.memcpy.p0.p0.i64(ptr noundef nonnull align 1 dereferenceable(43) %19, ptr noundef nonnull align 1 dereferenceable(43) @.str.18, i64 43, i1 false)
  %28 = load ptr, ptr %OutBufCur.i6.i97, align 8
  %add.ptr.i.i105 = getelementptr inbounds i8, ptr %28, i64 43
  store ptr %add.ptr.i.i105, ptr %OutBufCur.i6.i97, align 8
  br label %if.end22

if.end22:                                         ; preds = %if.then4.i.i104, %if.then.i.i107, %if.then4.i.i88, %if.then.i.i91
  %call23 = tail call noundef nonnull align 8 dereferenceable(36) ptr @_ZN4llvh4errsEv()
  %call24 = tail call noundef nonnull align 8 dereferenceable(36) ptr @_ZN4llvh11raw_ostreamlsEPKc(ptr noundef nonnull align 8 dereferenceable(36) %call23, ptr noundef nonnull @.str.19)
  tail call void @abort() #30
  unreachable
}